; Function Attrs: nofree norecurse nosync nounwind memory(argmem: write) uwtable
define hidden void @stbrp_init_target(ptr noundef %0, i32 noundef %1, i32 noundef %2, ptr noundef %3, i32 noundef %4) local_unnamed_addr #1 {
  %6 = add i32 %4, -1
  %7 = icmp sgt i32 %4, 1
  br i1 %7, label %.lr.ph.preheader, label %._crit_edge

.lr.ph.preheader:                                 ; preds = %5
  %wide.trip.count = zext nneg i32 %6 to i64
  br label %.lr.ph

.lr.ph:                                           ; preds = %.lr.ph.preheader, %.lr.ph
  %indvars.iv = phi i64 [ 0, %.lr.ph.preheader ], [ %indvars.iv.next, %.lr.ph ]
  %indvars.iv.next = add nuw nsw i64 %indvars.iv, 1
  %8 = getelementptr inbounds nuw %struct.stbrp_node, ptr %3, i64 %indvars.iv.next
  %9 = getelementptr inbounds nuw %struct.stbrp_node, ptr %3, i64 %indvars.iv, i32 2
  store ptr %8, ptr %9, align 8
  %exitcond.not = icmp eq i64 %indvars.iv.next, %wide.trip.count
  br i1 %exitcond.not, label %._crit_edge.loopexit, label %.lr.ph

._crit_edge.loopexit:                             ; preds = %.lr.ph
  %10 = zext nneg i32 %6 to i64
  br label %._crit_edge

._crit_edge:                                      ; preds = %5, %._crit_edge.loopexit
  %.0.lcssa = phi i64 [ %10, %._crit_edge.loopexit ], [ 0, %5 ]
  %11 = getelementptr inbounds nuw %struct.stbrp_node, ptr %3, i64 %.0.lcssa, i32 2
  store ptr null, ptr %11, align 8
  %12 = getelementptr inbounds nuw i8, ptr %0, i64 12
  store i32 1, ptr %12, align 4
  %13 = getelementptr inbounds nuw i8, ptr %0, i64 16
  store i32 0, ptr %13, align 8
  %14 = getelementptr inbounds nuw i8, ptr %0, i64 32
  store ptr %3, ptr %14, align 8
  %15 = getelementptr inbounds nuw i8, ptr %0, i64 40
  %16 = getelementptr inbounds nuw i8, ptr %0, i64 24
  store ptr %15, ptr %16, align 8
  store i32 %1, ptr %0, align 8
  %17 = getelementptr inbounds nuw i8, ptr %0, i64 4
  store i32 %2, ptr %17, align 4
  %18 = getelementptr inbounds nuw i8, ptr %0, i64 20
  store i32 %4, ptr %18, align 4
  %19 = add i32 %6, %1
  %20 = sdiv i32 %19, %4
  %21 = getelementptr inbounds nuw i8, ptr %0, i64 8
  store i32 %20, ptr %21, align 8
  store i32 0, ptr %15, align 8
  %22 = getelementptr inbounds nuw i8, ptr %0, i64 44
  store i32 0, ptr %22, align 4
  %23 = getelementptr inbounds nuw i8, ptr %0, i64 56
  %24 = getelementptr inbounds nuw i8, ptr %0, i64 48
  store ptr %23, ptr %24, align 8
  store i32 %1, ptr %23, align 8
  %25 = getelementptr inbounds nuw i8, ptr %0, i64 60
  store i32 1073741824, ptr %25, align 4
  %26 = getelementptr inbounds nuw i8, ptr %0, i64 64
  store ptr null, ptr %26, align 8
  ret void
}